target datalayout = "e-m:e-p270:32:32-p271:32:32-p272:64:64-i64:64-i128:128-f80:128-n8:16:32:64-S128"
target triple = "x86_64-pc-linux-gnu"

%struct.png_XYZ = type { i32, i32, i32, i32, i32, i32, i32, i32, i32 }
%struct.png_xy = type { i32, i32, i32, i32, i32, i32, i32, i32 }
%struct.png_struct_def = type { [1 x %struct.__jmp_buf_tag], ptr, ptr, i64, ptr, ptr, ptr, ptr, ptr, ptr, ptr, ptr, ptr, i8, i8, i32, i32, i32, i32, %struct.z_stream_s, ptr, i32, i32, i32, i32, i32, i32, i32, i32, i32, i32, i32, i32, i32, i32, i32, i32, i32, i32, i32, i32, i64, i32, i32, i32, ptr, ptr, ptr, ptr, i64, i32, i32, ptr, i16, i32, i16, i8, i8, i8, i8, i8, i8, i8, i8, i8, i8, i8, i8, i8, i8, i8, i16, i8, i32, %struct.png_color_16_struct, %struct.png_color_16_struct, ptr, i32, i32, i32, i32, ptr, ptr, ptr, ptr, ptr, ptr, %struct.png_color_8_struct, %struct.png_color_8_struct, ptr, %struct.png_color_16_struct, ptr, ptr, ptr, ptr, ptr, ptr, ptr, ptr, ptr, i32, i32, i64, i64, i64, i64, i32, i32, ptr, ptr, i32, [29 x i8], i32, ptr, ptr, i32, i32, ptr, i8, i8, i16, i16, ptr, i32, i8, ptr, ptr, ptr, ptr, ptr, ptr, ptr, i8, i32, i32, i32, i64, %struct.png_unknown_chunk_t, i64, ptr, i64, i32, i32, ptr, [4 x ptr], %struct.png_colorspace }
%struct.__jmp_buf_tag = type { [8 x i64], i32, %struct.__sigset_t }
%struct.__sigset_t = type { [16 x i64] }
%struct.z_stream_s = type { ptr, i32, i64, ptr, i32, i64, ptr, ptr, ptr, ptr, ptr, i32, i64, i64 }
%struct.png_color_8_struct = type { i8, i8, i8, i8, i8 }
%struct.png_color_16_struct = type { i8, i16, i16, i16, i16 }
%struct.png_unknown_chunk_t = type { [5 x i8], ptr, i64, i8 }
%struct.png_colorspace = type { i32, %struct.png_xy, %struct.png_XYZ, i16, i16 }

@.str.20 = private unnamed_addr constant [25 x i8] c"gamma value out of range\00", align 1
@.str.21 = private unnamed_addr constant [10 x i8] c"duplicate\00", align 1
@.str.69 = private unnamed_addr constant [32 x i8] c"gamma value does not match sRGB\00", align 1
@.str.70 = private unnamed_addr constant [43 x i8] c"gamma value does not match libpng estimate\00", align 1

; Function Attrs: nounwind uwtable
define i32 @png_gamma_significant(i32 noundef %0) #0 {
  %2 = alloca i32, align 4
  store i32 %0, ptr %2, align 4
  %3 = load i32, ptr %2, align 4
  %4 = icmp slt i32 %3, 95000
  br i1 %4, label %8, label %5

5:                                                ; preds = %1
  %6 = load i32, ptr %2, align 4
  %7 = icmp sgt i32 %6, 105000
  br label %8

8:                                                ; preds = %5, %1
  %9 = phi i1 [ true, %1 ], [ %7, %5 ]
  %10 = zext i1 %9 to i32
  ret i32 %10
}

; Function Attrs: nounwind uwtable
define i32 @png_muldiv(ptr noundef %0, i32 noundef %1, i32 noundef %2, i32 noundef %3) #0 {
  %5 = alloca i32, align 4
  %6 = alloca ptr, align 8
  %7 = alloca i32, align 4
  %8 = alloca i32, align 4
  %9 = alloca i32, align 4
  %10 = alloca double, align 8
  store ptr %0, ptr %6, align 8
  store i32 %1, ptr %7, align 4
  store i32 %2, ptr %8, align 4
  store i32 %3, ptr %9, align 4
  %11 = load i32, ptr %9, align 4
  %12 = icmp ne i32 %11, 0
  br i1 %12, label %13, label %46

13:                                               ; preds = %4
  %14 = load i32, ptr %7, align 4
  %15 = icmp eq i32 %14, 0
  br i1 %15, label %19, label %16

16:                                               ; preds = %13
  %17 = load i32, ptr %8, align 4
  %18 = icmp eq i32 %17, 0
  br i1 %18, label %19, label %21

19:                                               ; preds = %16, %13
  %20 = load ptr, ptr %6, align 8
  store i32 0, ptr %20, align 4
  store i32 1, ptr %5, align 4
  br label %47

21:                                               ; preds = %16
  %22 = load i32, ptr %7, align 4
  %23 = sitofp i32 %22 to double
  store double %23, ptr %10, align 8
  %24 = load i32, ptr %8, align 4
  %25 = sitofp i32 %24 to double
  %26 = load double, ptr %10, align 8
  %27 = fmul double %26, %25
  store double %27, ptr %10, align 8
  %28 = load i32, ptr %9, align 4
  %29 = sitofp i32 %28 to double
  %30 = load double, ptr %10, align 8
  %31 = fdiv double %30, %29
  store double %31, ptr %10, align 8
  %32 = load double, ptr %10, align 8
  %33 = fadd double %32, 5.000000e-01
  %34 = call double @llvm.floor.f64(double %33)
  store double %34, ptr %10, align 8
  %35 = load double, ptr %10, align 8
  %36 = fcmp ole double %35, 0x41DFFFFFFFC00000
  br i1 %36, label %37, label %44

37:                                               ; preds = %21
  %38 = load double, ptr %10, align 8
  %39 = fcmp oge double %38, 0xC1E0000000000000
  br i1 %39, label %40, label %44

40:                                               ; preds = %37
  %41 = load double, ptr %10, align 8
  %42 = fptosi double %41 to i32
  %43 = load ptr, ptr %6, align 8
  store i32 %42, ptr %43, align 4
  store i32 1, ptr %5, align 4
  br label %47

44:                                               ; preds = %37, %21
  br label %45

45:                                               ; preds = %44
  br label %46

46:                                               ; preds = %45, %4
  store i32 0, ptr %5, align 4
  br label %47

47:                                               ; preds = %46, %40, %19
  %48 = load i32, ptr %5, align 4
  ret i32 %48
}

; Function Attrs: nounwind uwtable
define internal i32 @png_colorspace_check_gamma(ptr noalias noundef %0, ptr noalias noundef %1, i32 noundef %2, i32 noundef %3) #0 {
  %5 = alloca i32, align 4
  %6 = alloca ptr, align 8
  %7 = alloca ptr, align 8
  %8 = alloca i32, align 4
  %9 = alloca i32, align 4
  %10 = alloca i32, align 4
  store ptr %0, ptr %6, align 8
  store ptr %1, ptr %7, align 8
  store i32 %2, ptr %8, align 4
  store i32 %3, ptr %9, align 4
  %11 = load ptr, ptr %7, align 8
  %12 = getelementptr inbounds %struct.png_colorspace, ptr %11, i32 0, i32 4
  %13 = load i16, ptr %12, align 2
  %14 = zext i16 %13 to i32
  %15 = and i32 %14, 1
  %16 = icmp ne i32 %15, 0
  br i1 %16, label %17, label %48

17:                                               ; preds = %4
  %18 = load ptr, ptr %7, align 8
  %19 = getelementptr inbounds %struct.png_colorspace, ptr %18, i32 0, i32 0
  %20 = load i32, ptr %19, align 4
  %21 = load i32, ptr %8, align 4
  %22 = call i32 @png_muldiv(ptr noundef %10, i32 noundef %20, i32 noundef 100000, i32 noundef %21)
  %23 = icmp eq i32 %22, 0
  br i1 %23, label %28, label %24

24:                                               ; preds = %17
  %25 = load i32, ptr %10, align 4
  %26 = call i32 @png_gamma_significant(i32 noundef %25)
  %27 = icmp ne i32 %26, 0
  br i1 %27, label %28, label %48

28:                                               ; preds = %24, %17
  %29 = load ptr, ptr %7, align 8
  %30 = getelementptr inbounds %struct.png_colorspace, ptr %29, i32 0, i32 4
  %31 = load i16, ptr %30, align 2
  %32 = zext i16 %31 to i32
  %33 = and i32 %32, 32
  %34 = icmp ne i32 %33, 0
  br i1 %34, label %38, label %35

35:                                               ; preds = %28
  %36 = load i32, ptr %9, align 4
  %37 = icmp eq i32 %36, 2
  br i1 %37, label %38, label %43

38:                                               ; preds = %35, %28
  %39 = load ptr, ptr %6, align 8
  call void @png_chunk_report(ptr noundef %39, ptr noundef @.str.69, i32 noundef 2)
  %40 = load i32, ptr %9, align 4
  %41 = icmp eq i32 %40, 2
  %42 = zext i1 %41 to i32
  store i32 %42, ptr %5, align 4
  br label %49

43:                                               ; preds = %35
  %44 = load ptr, ptr %6, align 8
  call void @png_chunk_report(ptr noundef %44, ptr noundef @.str.70, i32 noundef 0)
  %45 = load i32, ptr %9, align 4
  %46 = icmp eq i32 %45, 1
  %47 = zext i1 %46 to i32
  store i32 %47, ptr %5, align 4
  br label %49

48:                                               ; preds = %24, %4
  store i32 1, ptr %5, align 4
  br label %49

49:                                               ; preds = %48, %43, %38
  %50 = load i32, ptr %5, align 4
  ret i32 %50
}

; Function Attrs: nounwind uwtable
define void @png_colorspace_set_gamma(ptr noalias noundef %0, ptr noalias noundef %1, i32 noundef %2) #0 {
  %4 = alloca ptr, align 8
  %5 = alloca ptr, align 8
  %6 = alloca i32, align 4
  %7 = alloca ptr, align 8
  store ptr %0, ptr %4, align 8
  store ptr %1, ptr %5, align 8
  store i32 %2, ptr %6, align 4
  %8 = load i32, ptr %6, align 4
  %9 = icmp slt i32 %8, 16
  br i1 %9, label %13, label %10

10:                                               ; preds = %3
  %11 = load i32, ptr %6, align 4
  %12 = icmp sgt i32 %11, 625000000
  br i1 %12, label %13, label %14

13:                                               ; preds = %10, %3
  store ptr @.str.20, ptr %7, align 8
  br label %54

14:                                               ; preds = %10
  %15 = load ptr, ptr %4, align 8
  %16 = getelementptr inbounds %struct.png_struct_def, ptr %15, i32 0, i32 15
  %17 = load i32, ptr %16, align 4
  %18 = and i32 %17, 32768
  %19 = icmp ne i32 %18, 0
  br i1 %19, label %20, label %28

20:                                               ; preds = %14
  %21 = load ptr, ptr %5, align 8
  %22 = getelementptr inbounds %struct.png_colorspace, ptr %21, i32 0, i32 4
  %23 = load i16, ptr %22, align 2
  %24 = zext i16 %23 to i32
  %25 = and i32 %24, 8
  %26 = icmp ne i32 %25, 0
  br i1 %26, label %27, label %28

27:                                               ; preds = %20
  store ptr @.str.21, ptr %7, align 8
  br label %53

28:                                               ; preds = %20, %14
  %29 = load ptr, ptr %5, align 8
  %30 = getelementptr inbounds %struct.png_colorspace, ptr %29, i32 0, i32 4
  %31 = load i16, ptr %30, align 2
  %32 = zext i16 %31 to i32
  %33 = and i32 %32, 32768
  %34 = icmp ne i32 %33, 0
  br i1 %34, label %35, label %36

35:                                               ; preds = %28
  br label %63

36:                                               ; preds = %28
  %37 = load ptr, ptr %4, align 8
  %38 = load ptr, ptr %5, align 8
  %39 = load i32, ptr %6, align 4
  %40 = call i32 @png_colorspace_check_gamma(ptr noundef %37, ptr noundef %38, i32 noundef %39, i32 noundef 1)
  %41 = icmp ne i32 %40, 0
  br i1 %41, label %42, label %52

42:                                               ; preds = %36
  %43 = load i32, ptr %6, align 4
  %44 = load ptr, ptr %5, align 8
  %45 = getelementptr inbounds %struct.png_colorspace, ptr %44, i32 0, i32 0
  store i32 %43, ptr %45, align 4
  %46 = load ptr, ptr %5, align 8
  %47 = getelementptr inbounds %struct.png_colorspace, ptr %46, i32 0, i32 4
  %48 = load i16, ptr %47, align 2
  %49 = zext i16 %48 to i32
  %50 = or i32 %49, 9
  %51 = trunc i32 %50 to i16
  store i16 %51, ptr %47, align 2
  br label %52

52:                                               ; preds = %42, %36
  br label %63

53:                                               ; preds = %27
  br label %54

54:                                               ; preds = %53, %13
  %55 = load ptr, ptr %5, align 8
  %56 = getelementptr inbounds %struct.png_colorspace, ptr %55, i32 0, i32 4
  %57 = load i16, ptr %56, align 2
  %58 = zext i16 %57 to i32
  %59 = or i32 %58, 32768
  %60 = trunc i32 %59 to i16
  store i16 %60, ptr %56, align 2
  %61 = load ptr, ptr %4, align 8
  %62 = load ptr, ptr %7, align 8
  call void @png_chunk_report(ptr noundef %61, ptr noundef %62, i32 noundef 1)
  br label %63

63:                                               ; preds = %54, %52, %35
  ret void
}