; Function Attrs: nounwind uwtable
define void @png_colorspace_set_gamma(ptr noalias noundef %0, ptr noalias nocapture noundef %1, i32 noundef %2) local_unnamed_addr #0 {
  %4 = add i32 %2, -625000001
  %or.cond = icmp ult i32 %4, -624999985
  br i1 %or.cond, label %._crit_edge21, label %5

._crit_edge21:                                    ; preds = %3
  %.phi.trans.insert22 = getelementptr inbounds i8, ptr %1, i64 74
  %.pre23 = load i16, ptr %.phi.trans.insert22, align 2
  br label %32

5:                                                ; preds = %3
  %6 = getelementptr inbounds i8, ptr %0, i64 300
  %7 = load i32, ptr %6, align 4
  %8 = and i32 %7, 32768
  %.not = icmp eq i32 %8, 0
  %.phi.trans.insert = getelementptr inbounds i8, ptr %1, i64 74
  %.pre = load i16, ptr %.phi.trans.insert, align 2
  %9 = and i16 %.pre, 8
  %.not15 = icmp eq i16 %9, 0
  %or.cond24 = select i1 %.not, i1 true, i1 %.not15
  br i1 %or.cond24, label %._crit_edge, label %32

._crit_edge:                                      ; preds = %5
  %10 = getelementptr inbounds i8, ptr %1, i64 74
  %.not16 = icmp sgt i16 %.pre, -1
  br i1 %.not16, label %11, label %36

11:                                               ; preds = %._crit_edge
  tail call void @llvm.experimental.noalias.scope.decl(metadata !17)
  %12 = and i16 %.pre, 1
  %.not.i = icmp eq i16 %12, 0
  br i1 %.not.i, label %30, label %13

13:                                               ; preds = %11
  %14 = load i32, ptr %1, align 4, !alias.scope !17, !noalias !20
  %15 = icmp eq i32 %14, 0
  br i1 %15, label %png_muldiv.exit.thread15.i, label %16

16:                                               ; preds = %13
  %17 = sitofp i32 %14 to double
  %18 = fmul double %17, 1.000000e+05
  %19 = uitofp nneg i32 %2 to double
  %20 = fdiv double %18, %19
  %21 = fadd double %20, 5.000000e-01
  %22 = tail call double @llvm.floor.f64(double %21)
  %23 = fcmp ole double %22, 0x41DFFFFFFFC00000
  %24 = fcmp oge double %22, 0xC1E0000000000000
  %or.cond3.i.i = and i1 %23, %24
  br i1 %or.cond3.i.i, label %png_muldiv.exit.i, label %png_muldiv.exit.thread15.i

png_muldiv.exit.i:                                ; preds = %16
  %25 = fptosi double %22 to i32
  %26 = add i32 %25, -95000
  %27 = icmp ult i32 %26, 10001
  br i1 %27, label %30, label %png_muldiv.exit.thread15.i

png_muldiv.exit.thread15.i:                       ; preds = %png_muldiv.exit.i, %16, %13
  %28 = and i16 %.pre, 32
  %.not20 = icmp eq i16 %28, 0
  br i1 %.not20, label %29, label %png_colorspace_check_gamma.exit

29:                                               ; preds = %png_muldiv.exit.thread15.i
  tail call void @png_chunk_report(ptr noundef nonnull %0, ptr noundef nonnull @.str.70, i32 noundef 0) #29, !noalias !17
  br label %30

png_colorspace_check_gamma.exit:                  ; preds = %png_muldiv.exit.thread15.i
  tail call void @png_chunk_report(ptr noundef nonnull %0, ptr noundef nonnull @.str.69, i32 noundef 2) #29, !noalias !17
  br label %36

30:                                               ; preds = %29, %png_muldiv.exit.i, %11
  store i32 %2, ptr %1, align 4
  %31 = or i16 %.pre, 9
  store i16 %31, ptr %10, align 2
  br label %36

32:                                               ; preds = %5, %._crit_edge21
  %33 = phi i16 [ %.pre23, %._crit_edge21 ], [ %.pre, %5 ]
  %.0 = phi ptr [ @.str.20, %._crit_edge21 ], [ @.str.21, %5 ]
  %34 = getelementptr inbounds i8, ptr %1, i64 74
  %35 = or i16 %33, -32768
  store i16 %35, ptr %34, align 2
  tail call void @png_chunk_report(ptr noundef %0, ptr noundef nonnull %.0, i32 noundef 1) #29
  br label %36

36:                                               ; preds = %png_colorspace_check_gamma.exit, %30, %._crit_edge, %32
  ret void
}